target datalayout = "e-m:e-p270:32:32-p271:32:32-p272:64:64-i64:64-i128:128-f80:128-n8:16:32:64-S128"
target triple = "x86_64-pc-linux-gnu"

@.str = private unnamed_addr constant [135 x i8] c"generated/home/dtcxzyw/WorkSpace/Projects/compilers/llvm-opt-benchmark/bench/gromacs/gromacs/src/external/tng_io/src/compression/mtf.c\00", align 1

; Function Attrs: nounwind uwtable
define void @Ptngc_comp_conv_to_mtf(ptr noundef %0, i32 noundef %1, ptr noundef %2, i32 noundef %3, ptr noundef %4) #0 {
  %6 = alloca ptr, align 8
  %7 = alloca i32, align 4
  %8 = alloca ptr, align 8
  %9 = alloca i32, align 4
  %10 = alloca ptr, align 8
  %11 = alloca i32, align 4
  %12 = alloca ptr, align 8
  %13 = alloca i32, align 4
  %14 = alloca i32, align 4
  %15 = alloca i32, align 4
  %16 = alloca i32, align 4
  %17 = alloca i32, align 4
  store ptr %0, ptr %6, align 8, !tbaa !3
  store i32 %1, ptr %7, align 4, !tbaa !8
  store ptr %2, ptr %8, align 8, !tbaa !3
  store i32 %3, ptr %9, align 4, !tbaa !8
  store ptr %4, ptr %10, align 8, !tbaa !3
  call void @llvm.lifetime.start.p0(i64 4, ptr %11) #5
  call void @llvm.lifetime.start.p0(i64 8, ptr %12) #5
  %18 = load i32, ptr %9, align 4, !tbaa !8
  %19 = sext i32 %18 to i64
  %20 = mul i64 %19, 4
  %21 = call ptr @Ptngc_warnmalloc_x(i64 noundef %20, ptr noundef @.str, i32 noundef 211)
  store ptr %21, ptr %12, align 8, !tbaa !3
  call void @llvm.lifetime.start.p0(i64 4, ptr %13) #5
  store i32 0, ptr %11, align 4, !tbaa !8
  br label %22

22:                                               ; preds = %34, %5
  %23 = load i32, ptr %11, align 4, !tbaa !8
  %24 = load i32, ptr %9, align 4, !tbaa !8
  %25 = sub nsw i32 %24, 1
  %26 = icmp slt i32 %23, %25
  br i1 %26, label %27, label %37

27:                                               ; preds = %22
  %28 = load i32, ptr %11, align 4, !tbaa !8
  %29 = add nsw i32 %28, 1
  %30 = load ptr, ptr %12, align 8, !tbaa !3
  %31 = load i32, ptr %11, align 4, !tbaa !8
  %32 = sext i32 %31 to i64
  %33 = getelementptr inbounds i32, ptr %30, i64 %32
  store i32 %29, ptr %33, align 4, !tbaa !8
  br label %34

34:                                               ; preds = %27
  %35 = load i32, ptr %11, align 4, !tbaa !8
  %36 = add nsw i32 %35, 1
  store i32 %36, ptr %11, align 4, !tbaa !8
  br label %22, !llvm.loop !32

37:                                               ; preds = %22
  %38 = load ptr, ptr %12, align 8, !tbaa !3
  %39 = load i32, ptr %9, align 4, !tbaa !8
  %40 = sub nsw i32 %39, 1
  %41 = sext i32 %40 to i64
  %42 = getelementptr inbounds i32, ptr %38, i64 %41
  store i32 -1, ptr %42, align 4, !tbaa !8
  store i32 0, ptr %13, align 4, !tbaa !8
  store i32 0, ptr %11, align 4, !tbaa !8
  br label %43

43:                                               ; preds = %96, %37
  %44 = load i32, ptr %11, align 4, !tbaa !8
  %45 = load i32, ptr %7, align 4, !tbaa !8
  %46 = icmp slt i32 %44, %45
  br i1 %46, label %47, label %99

47:                                               ; preds = %43
  call void @llvm.lifetime.start.p0(i64 4, ptr %14) #5
  %48 = load ptr, ptr %6, align 8, !tbaa !3
  %49 = load i32, ptr %11, align 4, !tbaa !8
  %50 = sext i32 %49 to i64
  %51 = getelementptr inbounds i32, ptr %48, i64 %50
  %52 = load i32, ptr %51, align 4, !tbaa !8
  store i32 %52, ptr %14, align 4, !tbaa !8
  call void @llvm.lifetime.start.p0(i64 4, ptr %15) #5
  %53 = load i32, ptr %13, align 4, !tbaa !8
  store i32 %53, ptr %15, align 4, !tbaa !8
  call void @llvm.lifetime.start.p0(i64 4, ptr %16) #5
  store i32 -1, ptr %16, align 4, !tbaa !8
  call void @llvm.lifetime.start.p0(i64 4, ptr %17) #5
  store i32 0, ptr %17, align 4, !tbaa !8
  br label %54

54:                                               ; preds = %62, %47
  %55 = load ptr, ptr %8, align 8, !tbaa !3
  %56 = load i32, ptr %15, align 4, !tbaa !8
  %57 = sext i32 %56 to i64
  %58 = getelementptr inbounds i32, ptr %55, i64 %57
  %59 = load i32, ptr %58, align 4, !tbaa !8
  %60 = load i32, ptr %14, align 4, !tbaa !8
  %61 = icmp ne i32 %59, %60
  br i1 %61, label %62, label %71

62:                                               ; preds = %54
  %63 = load i32, ptr %15, align 4, !tbaa !8
  store i32 %63, ptr %16, align 4, !tbaa !8
  %64 = load ptr, ptr %12, align 8, !tbaa !3
  %65 = load i32, ptr %15, align 4, !tbaa !8
  %66 = sext i32 %65 to i64
  %67 = getelementptr inbounds i32, ptr %64, i64 %66
  %68 = load i32, ptr %67, align 4, !tbaa !8
  store i32 %68, ptr %15, align 4, !tbaa !8
  %69 = load i32, ptr %17, align 4, !tbaa !8
  %70 = add nsw i32 %69, 1
  store i32 %70, ptr %17, align 4, !tbaa !8
  br label %54, !llvm.loop !33

71:                                               ; preds = %54
  %72 = load i32, ptr %17, align 4, !tbaa !8
  %73 = load ptr, ptr %10, align 8, !tbaa !3
  %74 = load i32, ptr %11, align 4, !tbaa !8
  %75 = sext i32 %74 to i64
  %76 = getelementptr inbounds i32, ptr %73, i64 %75
  store i32 %72, ptr %76, align 4, !tbaa !8
  %77 = load i32, ptr %16, align 4, !tbaa !8
  %78 = icmp ne i32 %77, -1
  br i1 %78, label %79, label %95

79:                                               ; preds = %71
  %80 = load ptr, ptr %12, align 8, !tbaa !3
  %81 = load i32, ptr %15, align 4, !tbaa !8
  %82 = sext i32 %81 to i64
  %83 = getelementptr inbounds i32, ptr %80, i64 %82
  %84 = load i32, ptr %83, align 4, !tbaa !8
  %85 = load ptr, ptr %12, align 8, !tbaa !3
  %86 = load i32, ptr %16, align 4, !tbaa !8
  %87 = sext i32 %86 to i64
  %88 = getelementptr inbounds i32, ptr %85, i64 %87
  store i32 %84, ptr %88, align 4, !tbaa !8
  %89 = load i32, ptr %13, align 4, !tbaa !8
  %90 = load ptr, ptr %12, align 8, !tbaa !3
  %91 = load i32, ptr %15, align 4, !tbaa !8
  %92 = sext i32 %91 to i64
  %93 = getelementptr inbounds i32, ptr %90, i64 %92
  store i32 %89, ptr %93, align 4, !tbaa !8
  %94 = load i32, ptr %15, align 4, !tbaa !8
  store i32 %94, ptr %13, align 4, !tbaa !8
  br label %95

95:                                               ; preds = %79, %71
  call void @llvm.lifetime.end.p0(i64 4, ptr %17) #5
  call void @llvm.lifetime.end.p0(i64 4, ptr %16) #5
  call void @llvm.lifetime.end.p0(i64 4, ptr %15) #5
  call void @llvm.lifetime.end.p0(i64 4, ptr %14) #5
  br label %96

96:                                               ; preds = %95
  %97 = load i32, ptr %11, align 4, !tbaa !8
  %98 = add nsw i32 %97, 1
  store i32 %98, ptr %11, align 4, !tbaa !8
  br label %43, !llvm.loop !34

99:                                               ; preds = %43
  %100 = load ptr, ptr %12, align 8, !tbaa !3
  call void @free(ptr noundef %100) #5
  call void @llvm.lifetime.end.p0(i64 4, ptr %13) #5
  call void @llvm.lifetime.end.p0(i64 8, ptr %12) #5
  call void @llvm.lifetime.end.p0(i64 4, ptr %11) #5
  ret void
}