; Function Attrs: nounwind uwtable
define void @Ptngc_comp_conv_to_mtf(ptr noundef readonly captures(none) %0, i32 noundef %1, ptr noundef readonly captures(none) %2, i32 noundef %3, ptr noundef writeonly captures(none) %4) local_unnamed_addr #0 {
  %6 = sext i32 %3 to i64
  %7 = shl nsw i64 %6, 2
  %8 = tail call ptr @Ptngc_warnmalloc_x(i64 noundef %7, ptr noundef nonnull @.str, i32 noundef 211) #5
  %9 = add i32 %3, -1
  %10 = icmp sgt i32 %3, 1
  br i1 %10, label %.lr.ph.preheader, label %._crit_edge

.lr.ph.preheader:                                 ; preds = %5
  %wide.trip.count = zext nneg i32 %9 to i64
  br label %.lr.ph

.lr.ph:                                           ; preds = %.lr.ph.preheader, %.lr.ph
  %indvars.iv = phi i64 [ 0, %.lr.ph.preheader ], [ %indvars.iv.next, %.lr.ph ]
  %indvars.iv.next = add nuw nsw i64 %indvars.iv, 1
  %11 = getelementptr inbounds nuw i32, ptr %8, i64 %indvars.iv
  %12 = trunc nuw nsw i64 %indvars.iv.next to i32
  store i32 %12, ptr %11, align 4, !tbaa !3
  %exitcond.not = icmp eq i64 %indvars.iv.next, %wide.trip.count
  br i1 %exitcond.not, label %._crit_edge, label %.lr.ph, !llvm.loop !27

._crit_edge:                                      ; preds = %.lr.ph, %5
  %13 = sext i32 %9 to i64
  %14 = getelementptr inbounds i32, ptr %8, i64 %13
  store i32 -1, ptr %14, align 4, !tbaa !3
  %15 = icmp sgt i32 %1, 0
  br i1 %15, label %.lr.ph56.preheader, label %._crit_edge57

.lr.ph56.preheader:                               ; preds = %._crit_edge
  %wide.trip.count65 = zext nneg i32 %1 to i64
  br label %.lr.ph56

.lr.ph56:                                         ; preds = %.lr.ph56.preheader, %35
  %indvars.iv62 = phi i64 [ 0, %.lr.ph56.preheader ], [ %indvars.iv.next63, %35 ]
  %.03753 = phi i32 [ 0, %.lr.ph56.preheader ], [ %.138, %35 ]
  %16 = getelementptr inbounds nuw i32, ptr %0, i64 %indvars.iv62
  %17 = load i32, ptr %16, align 4, !tbaa !3
  %18 = sext i32 %.03753 to i64
  %19 = getelementptr inbounds i32, ptr %2, i64 %18
  %20 = load i32, ptr %19, align 4, !tbaa !3
  %.not43 = icmp eq i32 %20, %17
  br i1 %.not43, label %._crit_edge48.thread, label %.lr.ph47

._crit_edge48.thread:                             ; preds = %.lr.ph56
  %21 = getelementptr inbounds nuw i32, ptr %4, i64 %indvars.iv62
  store i32 0, ptr %21, align 4, !tbaa !3
  br label %35

.lr.ph47:                                         ; preds = %.lr.ph56, %.lr.ph47
  %22 = phi i64 [ %26, %.lr.ph47 ], [ %18, %.lr.ph56 ]
  %.045 = phi i32 [ %25, %.lr.ph47 ], [ 0, %.lr.ph56 ]
  %.03544 = phi i32 [ %24, %.lr.ph47 ], [ %.03753, %.lr.ph56 ]
  %23 = getelementptr inbounds i32, ptr %8, i64 %22
  %24 = load i32, ptr %23, align 4, !tbaa !3
  %25 = add nuw nsw i32 %.045, 1
  %26 = sext i32 %24 to i64
  %27 = getelementptr inbounds i32, ptr %2, i64 %26
  %28 = load i32, ptr %27, align 4, !tbaa !3
  %.not = icmp eq i32 %28, %17
  br i1 %.not, label %._crit_edge48, label %.lr.ph47, !llvm.loop !28

._crit_edge48:                                    ; preds = %.lr.ph47
  %29 = getelementptr inbounds nuw i32, ptr %4, i64 %indvars.iv62
  store i32 %25, ptr %29, align 4, !tbaa !3
  %.not40 = icmp eq i32 %.03544, -1
  br i1 %.not40, label %35, label %30

30:                                               ; preds = %._crit_edge48
  %31 = getelementptr inbounds i32, ptr %8, i64 %26
  %32 = load i32, ptr %31, align 4, !tbaa !3
  %33 = sext i32 %.03544 to i64
  %34 = getelementptr inbounds i32, ptr %8, i64 %33
  store i32 %32, ptr %34, align 4, !tbaa !3
  store i32 %.03753, ptr %31, align 4, !tbaa !3
  br label %35

35:                                               ; preds = %._crit_edge48.thread, %30, %._crit_edge48
  %.138 = phi i32 [ %24, %30 ], [ %.03753, %._crit_edge48 ], [ %.03753, %._crit_edge48.thread ]
  %indvars.iv.next63 = add nuw nsw i64 %indvars.iv62, 1
  %exitcond66.not = icmp eq i64 %indvars.iv.next63, %wide.trip.count65
  br i1 %exitcond66.not, label %._crit_edge57, label %.lr.ph56, !llvm.loop !29

._crit_edge57:                                    ; preds = %35, %._crit_edge
  tail call void @free(ptr noundef %8) #5
  ret void
}